target datalayout = "e-m:e-p270:32:32-p271:32:32-p272:64:64-i64:64-i128:128-f80:128-n8:16:32:64-S128"
target triple = "x86_64-pc-linux-gnu"

%struct._value_string_ext = type { ptr, i32, i32, ptr, ptr }
%struct.expert_field = type { i32, i32 }

@hf_r3_commandmfglength = internal global i32 0, align 4
@hf_r3_commandmfg = internal global i32 0, align 4
@hf_r3_forceoptions_item = internal global i32 0, align 4
@r3_forceitemnames_ext = internal global %struct._value_string_ext { ptr @_try_val_to_str_ext_init, i32 0, i32 21, ptr @r3_forceitemnames, ptr @.str.1737 }, align 8
@hf_r3_forceoptions_length = internal global i32 0, align 4
@hf_r3_forceoptions_state_8 = internal global i32 0, align 4
@hf_r3_forceoptions_state_16 = internal global i32 0, align 4
@hf_r3_forceoptions_state_24 = internal global i32 0, align 4
@hf_r3_forceoptions_state_32 = internal global i32 0, align 4
@ett_r3forceoptions = internal global i32 0, align 4
@ei_r3_malformed_length = internal global %struct.expert_field zeroinitializer, align 4
@.str.1879 = private unnamed_addr constant [10 x i8] c"[Unknown]\00", align 1
@.str.2197 = private unnamed_addr constant [21 x i8] c"Force Option %s (%u)\00", align 1
@.str.2198 = private unnamed_addr constant [44 x i8] c"Invalid length for Forceoptions State entry\00", align 1

; Function Attrs: null_pointer_is_valid sspstrong uwtable
define internal void @dissect_r3_cmdmfg_forceoptions(ptr noundef %0, i32 noundef %1, i32 noundef %2, ptr noundef %3, ptr noundef %4) #0 {
  %6 = alloca ptr, align 8
  %7 = alloca i32, align 4
  %8 = alloca i32, align 4
  %9 = alloca ptr, align 8
  %10 = alloca ptr, align 8
  %11 = alloca i32, align 4
  %12 = alloca i32, align 4
  %13 = alloca i8, align 1
  %14 = alloca ptr, align 8
  %15 = alloca ptr, align 8
  %16 = alloca i32, align 4
  store ptr %0, ptr %6, align 8
  store i32 %1, ptr %7, align 4
  store i32 %2, ptr %8, align 4
  store ptr %3, ptr %9, align 8
  store ptr %4, ptr %10, align 8
  call void @llvm.lifetime.start.p0(i64 4, ptr %11) #5
  call void @llvm.lifetime.start.p0(i64 4, ptr %12) #5
  call void @llvm.lifetime.start.p0(i64 1, ptr %13) #5
  %17 = load ptr, ptr %10, align 8
  %18 = load i32, ptr @hf_r3_commandmfglength, align 4
  %19 = load ptr, ptr %6, align 8
  %20 = load i32, ptr %7, align 4
  %21 = add i32 %20, 0
  %22 = call ptr @proto_tree_add_item(ptr noundef %17, i32 noundef %18, ptr noundef %19, i32 noundef %21, i32 noundef 1, i32 noundef -2147483648)
  %23 = load ptr, ptr %10, align 8
  %24 = load i32, ptr @hf_r3_commandmfg, align 4
  %25 = load ptr, ptr %6, align 8
  %26 = load i32, ptr %7, align 4
  %27 = add i32 %26, 1
  %28 = call ptr @proto_tree_add_item(ptr noundef %23, i32 noundef %24, ptr noundef %25, i32 noundef %27, i32 noundef 1, i32 noundef -2147483648)
  %29 = load i32, ptr %7, align 4
  %30 = add i32 %29, 2
  store i32 %30, ptr %7, align 4
  %31 = load ptr, ptr %6, align 8
  %32 = load i32, ptr %7, align 4
  %33 = call i32 @tvb_reported_length_remaining(ptr noundef %31, i32 noundef %32)
  store i32 %33, ptr %12, align 4
  store i32 0, ptr %11, align 4
  br label %34

34:                                               ; preds = %147, %5
  %35 = load i32, ptr %11, align 4
  %36 = load i32, ptr %12, align 4
  %37 = icmp slt i32 %35, %36
  br i1 %37, label %38, label %46

38:                                               ; preds = %34
  %39 = load ptr, ptr %6, align 8
  %40 = load i32, ptr %7, align 4
  %41 = load i32, ptr %11, align 4
  %42 = add i32 %40, %41
  %43 = call zeroext i8 @tvb_get_uint8(ptr noundef %39, i32 noundef %42)
  store i8 %43, ptr %13, align 1
  %44 = zext i8 %43 to i32
  %45 = icmp sgt i32 %44, 0
  br label %46

46:                                               ; preds = %38, %34
  %47 = phi i1 [ false, %34 ], [ %45, %38 ]
  br i1 %47, label %48, label %148

48:                                               ; preds = %46
  call void @llvm.lifetime.start.p0(i64 8, ptr %14) #5
  %49 = load ptr, ptr %10, align 8
  %50 = load ptr, ptr %6, align 8
  %51 = load i32, ptr %7, align 4
  %52 = load i32, ptr %11, align 4
  %53 = add i32 %51, %52
  %54 = load ptr, ptr %6, align 8
  %55 = load i32, ptr %7, align 4
  %56 = load i32, ptr %11, align 4
  %57 = add i32 %55, %56
  %58 = call zeroext i8 @tvb_get_uint8(ptr noundef %54, i32 noundef %57)
  %59 = zext i8 %58 to i32
  %60 = load i32, ptr @ett_r3forceoptions, align 4
  %61 = load ptr, ptr %6, align 8
  %62 = load i32, ptr %7, align 4
  %63 = load i32, ptr %11, align 4
  %64 = add i32 %62, %63
  %65 = add i32 %64, 1
  %66 = call zeroext i8 @tvb_get_uint8(ptr noundef %61, i32 noundef %65)
  %67 = zext i8 %66 to i32
  %68 = call ptr @val_to_str_ext_const(i32 noundef %67, ptr noundef @r3_forceitemnames_ext, ptr noundef @.str.1879)
  %69 = load ptr, ptr %6, align 8
  %70 = load i32, ptr %7, align 4
  %71 = load i32, ptr %11, align 4
  %72 = add i32 %70, %71
  %73 = add i32 %72, 1
  %74 = call zeroext i8 @tvb_get_uint8(ptr noundef %69, i32 noundef %73)
  %75 = zext i8 %74 to i32
  %76 = call ptr (ptr, ptr, i32, i32, i32, ptr, ptr, ...) @proto_tree_add_subtree_format(ptr noundef %49, ptr noundef %50, i32 noundef %53, i32 noundef %59, i32 noundef %60, ptr noundef null, ptr noundef @.str.2197, ptr noundef %68, i32 noundef %75)
  store ptr %76, ptr %14, align 8
  call void @llvm.lifetime.start.p0(i64 8, ptr %15) #5
  %77 = load ptr, ptr %14, align 8
  %78 = load i32, ptr @hf_r3_forceoptions_length, align 4
  %79 = load ptr, ptr %6, align 8
  %80 = load i32, ptr %7, align 4
  %81 = load i32, ptr %11, align 4
  %82 = add i32 %80, %81
  %83 = add i32 %82, 0
  %84 = call ptr @proto_tree_add_item(ptr noundef %77, i32 noundef %78, ptr noundef %79, i32 noundef %83, i32 noundef 1, i32 noundef -2147483648)
  %85 = load ptr, ptr %14, align 8
  %86 = load i32, ptr @hf_r3_forceoptions_item, align 4
  %87 = load ptr, ptr %6, align 8
  %88 = load i32, ptr %7, align 4
  %89 = load i32, ptr %11, align 4
  %90 = add i32 %88, %89
  %91 = add i32 %90, 1
  %92 = call ptr @proto_tree_add_item(ptr noundef %85, i32 noundef %86, ptr noundef %87, i32 noundef %91, i32 noundef 1, i32 noundef -2147483648)
  store ptr %92, ptr %15, align 8
  %93 = load ptr, ptr %6, align 8
  %94 = load i32, ptr %7, align 4
  %95 = load i32, ptr %11, align 4
  %96 = add i32 %94, %95
  %97 = call zeroext i8 @tvb_get_uint8(ptr noundef %93, i32 noundef %96)
  %98 = zext i8 %97 to i32
  %99 = sub i32 %98, 2
  switch i32 %99, label %136 [
    i32 1, label %100
    i32 2, label %109
    i32 3, label %118
    i32 4, label %127
  ]

100:                                              ; preds = %48
  %101 = load ptr, ptr %14, align 8
  %102 = load i32, ptr @hf_r3_forceoptions_state_8, align 4
  %103 = load ptr, ptr %6, align 8
  %104 = load i32, ptr %7, align 4
  %105 = load i32, ptr %11, align 4
  %106 = add i32 %104, %105
  %107 = add i32 %106, 2
  %108 = call ptr @proto_tree_add_item(ptr noundef %101, i32 noundef %102, ptr noundef %103, i32 noundef %107, i32 noundef 1, i32 noundef -2147483648)
  br label %140

109:                                              ; preds = %48
  %110 = load ptr, ptr %14, align 8
  %111 = load i32, ptr @hf_r3_forceoptions_state_16, align 4
  %112 = load ptr, ptr %6, align 8
  %113 = load i32, ptr %7, align 4
  %114 = load i32, ptr %11, align 4
  %115 = add i32 %113, %114
  %116 = add i32 %115, 2
  %117 = call ptr @proto_tree_add_item(ptr noundef %110, i32 noundef %111, ptr noundef %112, i32 noundef %116, i32 noundef 2, i32 noundef -2147483648)
  br label %140

118:                                              ; preds = %48
  %119 = load ptr, ptr %14, align 8
  %120 = load i32, ptr @hf_r3_forceoptions_state_24, align 4
  %121 = load ptr, ptr %6, align 8
  %122 = load i32, ptr %7, align 4
  %123 = load i32, ptr %11, align 4
  %124 = add i32 %122, %123
  %125 = add i32 %124, 2
  %126 = call ptr @proto_tree_add_item(ptr noundef %119, i32 noundef %120, ptr noundef %121, i32 noundef %125, i32 noundef 3, i32 noundef -2147483648)
  br label %140

127:                                              ; preds = %48
  %128 = load ptr, ptr %14, align 8
  %129 = load i32, ptr @hf_r3_forceoptions_state_32, align 4
  %130 = load ptr, ptr %6, align 8
  %131 = load i32, ptr %7, align 4
  %132 = load i32, ptr %11, align 4
  %133 = add i32 %131, %132
  %134 = add i32 %133, 2
  %135 = call ptr @proto_tree_add_item(ptr noundef %128, i32 noundef %129, ptr noundef %130, i32 noundef %134, i32 noundef 4, i32 noundef -2147483648)
  br label %140

136:                                              ; preds = %48
  %137 = load ptr, ptr %9, align 8
  %138 = load ptr, ptr %15, align 8
  %139 = call ptr (ptr, ptr, ptr, ptr, ...) @expert_add_info_format(ptr noundef %137, ptr noundef %138, ptr noundef @ei_r3_malformed_length, ptr noundef @.str.2198)
  store i32 1, ptr %16, align 4
  br label %145

140:                                              ; preds = %127, %118, %109, %100
  %141 = load i8, ptr %13, align 1
  %142 = zext i8 %141 to i32
  %143 = load i32, ptr %11, align 4
  %144 = add i32 %143, %142
  store i32 %144, ptr %11, align 4
  store i32 0, ptr %16, align 4
  br label %145

145:                                              ; preds = %140, %136
  call void @llvm.lifetime.end.p0(i64 8, ptr %15) #5
  call void @llvm.lifetime.end.p0(i64 8, ptr %14) #5
  %146 = load i32, ptr %16, align 4
  switch i32 %146, label %149 [
    i32 0, label %147
  ]

147:                                              ; preds = %145
  br label %34, !llvm.loop !30

148:                                              ; preds = %46
  store i32 0, ptr %16, align 4
  br label %149

149:                                              ; preds = %148, %145
  call void @llvm.lifetime.end.p0(i64 1, ptr %13) #5
  call void @llvm.lifetime.end.p0(i64 4, ptr %12) #5
  call void @llvm.lifetime.end.p0(i64 4, ptr %11) #5
  %150 = load i32, ptr %16, align 4
  switch i32 %150, label %152 [
    i32 0, label %151
    i32 1, label %151
  ]

151:                                              ; preds = %149, %149
  ret void

152:                                              ; preds = %149
  unreachable
}