; Function Attrs: null_pointer_is_valid sspstrong uwtable
define internal void @dissect_r3_cmdmfg_forceoptions(ptr noundef %0, i32 noundef %1, i32 %2, ptr noundef %3, ptr noundef %4) #0 {
  %6 = load i32, ptr @hf_r3_commandmfglength, align 4
  %7 = tail call ptr @proto_tree_add_item(ptr noundef %4, i32 noundef %6, ptr noundef %0, i32 noundef %1, i32 noundef 1, i32 noundef -2147483648)
  %8 = load i32, ptr @hf_r3_commandmfg, align 4
  %9 = add i32 %1, 1
  %10 = tail call ptr @proto_tree_add_item(ptr noundef %4, i32 noundef %8, ptr noundef %0, i32 noundef %9, i32 noundef 1, i32 noundef -2147483648)
  %11 = add i32 %1, 2
  %12 = tail call i32 @tvb_reported_length_remaining(ptr noundef %0, i32 noundef %11)
  %13 = icmp sgt i32 %12, 0
  br i1 %13, label %.lr.ph, label %.critedge

.lr.ph:                                           ; preds = %5, %switch.lookup
  %.05862 = phi i32 [ %39, %switch.lookup ], [ 0, %5 ]
  %14 = add i32 %.05862, %11
  %15 = tail call zeroext i8 @tvb_get_uint8(ptr noundef %0, i32 noundef %14)
  %16 = zext i8 %15 to i32
  %.not = icmp eq i8 %15, 0
  br i1 %.not, label %.critedge, label %17

17:                                               ; preds = %.lr.ph
  %18 = tail call zeroext i8 @tvb_get_uint8(ptr noundef %0, i32 noundef %14)
  %19 = zext i8 %18 to i32
  %20 = load i32, ptr @ett_r3forceoptions, align 4
  %21 = add i32 %14, 1
  %22 = tail call zeroext i8 @tvb_get_uint8(ptr noundef %0, i32 noundef %21)
  %23 = zext i8 %22 to i32
  %24 = tail call ptr @val_to_str_ext_const(i32 noundef %23, ptr noundef nonnull @r3_forceitemnames_ext, ptr noundef nonnull @.str.1879)
  %25 = tail call zeroext i8 @tvb_get_uint8(ptr noundef %0, i32 noundef %21)
  %26 = zext i8 %25 to i32
  %27 = tail call ptr (ptr, ptr, i32, i32, i32, ptr, ptr, ...) @proto_tree_add_subtree_format(ptr noundef %4, ptr noundef %0, i32 noundef %14, i32 noundef %19, i32 noundef %20, ptr noundef null, ptr noundef nonnull @.str.2197, ptr noundef %24, i32 noundef %26)
  %28 = load i32, ptr @hf_r3_forceoptions_length, align 4
  %29 = tail call ptr @proto_tree_add_item(ptr noundef %27, i32 noundef %28, ptr noundef %0, i32 noundef %14, i32 noundef 1, i32 noundef -2147483648)
  %30 = load i32, ptr @hf_r3_forceoptions_item, align 4
  %31 = tail call ptr @proto_tree_add_item(ptr noundef %27, i32 noundef %30, ptr noundef %0, i32 noundef %21, i32 noundef 1, i32 noundef -2147483648)
  %32 = tail call zeroext i8 @tvb_get_uint8(ptr noundef %0, i32 noundef %14)
  %switch.tableidx = add i8 %32, -3
  %33 = icmp ult i8 %switch.tableidx, 4
  br i1 %33, label %switch.lookup, label %.thread

.thread:                                          ; preds = %17
  %34 = tail call ptr (ptr, ptr, ptr, ptr, ...) @expert_add_info_format(ptr noundef %3, ptr noundef %31, ptr noundef nonnull @ei_r3_malformed_length, ptr noundef nonnull @.str.2198)
  br label %.critedge

switch.lookup:                                    ; preds = %17
  %35 = zext nneg i8 %switch.tableidx to i64
  %switch.gep = getelementptr inbounds nuw [4 x ptr], ptr @switch.table.dissect_r3_cmdmfg_forceoptions, i64 0, i64 %35
  %switch.load = load ptr, ptr %switch.gep, align 8
  %narrow = add nsw i8 %32, -2
  %switch.offset = zext i8 %narrow to i32
  %36 = load i32, ptr %switch.load, align 4
  %37 = add i32 %14, 2
  %38 = tail call ptr @proto_tree_add_item(ptr noundef %27, i32 noundef %36, ptr noundef %0, i32 noundef %37, i32 noundef %switch.offset, i32 noundef -2147483648)
  %39 = add i32 %.05862, %16
  %40 = icmp slt i32 %39, %12
  br i1 %40, label %.lr.ph, label %.critedge, !llvm.loop !29

.critedge:                                        ; preds = %switch.lookup, %.lr.ph, %5, %.thread
  ret void
}